target datalayout = "e-m:e-p270:32:32-p271:32:32-p272:64:64-i64:64-i128:128-f80:128-n8:16:32:64-S128"
target triple = "x86_64-pc-linux-gnu"

%class.macro_util = type { ptr, %class.bv_util, %class.arith_util, %class.arith_rewriter, %class.bv_rewriter, ptr, ptr }
%class.bv_util = type { %class.bv_recognizers, ptr, ptr }
%class.bv_recognizers = type { i32 }
%class.arith_util = type { ptr, ptr }
%class.arith_rewriter = type { %class.poly_rewriter.base, i8, i8, i8, i8, i8, i8, i8, i8, i32 }
%class.poly_rewriter.base = type <{ %class.arith_rewriter_core.base, [5 x i8], ptr, %class.obj_map, i8, i8, [2 x i8], i32, i8, i8, i8, i8 }>
%class.arith_rewriter_core.base = type <{ ptr, %class.arith_util, %class.scoped_ptr, i8, i8, i8 }>
%class.scoped_ptr = type { ptr }
%class.obj_map = type { %class.core_hashtable }
%class.core_hashtable = type <{ ptr, i32, i32, i32, [4 x i8] }>
%class.bv_rewriter = type <{ %class.poly_rewriter.base.1, [4 x i8], %class.mk_extract_proc, %class.arith_util, i8, i8, i8, i8, i8, i8, i8, i8, i8, i8, i8, i8, i8, [3 x i8] }>
%class.poly_rewriter.base.1 = type <{ %class.bv_rewriter_core, ptr, %class.obj_map, i8, i8, [2 x i8], i32, i8, i8, i8, i8 }>
%class.bv_rewriter_core = type { ptr, %class.bv_util, %class.obj_ref }
%class.obj_ref = type { ptr, ptr }
%class.mk_extract_proc = type { ptr, i32, i32, ptr, ptr }

; Function Attrs: mustprogress uwtable
define linkonce_odr hidden noundef zeroext i1 @_ZNK14bv_recognizers5is_bvEPK4expr(ptr noundef nonnull align 4 dereferenceable(4) %0, ptr noundef %1) #4 comdat align 2 {
  %3 = alloca ptr, align 8
  %4 = alloca ptr, align 8
  store ptr %0, ptr %3, align 8, !tbaa !51
  store ptr %1, ptr %4, align 8, !tbaa !50
  %5 = load ptr, ptr %3, align 8
  %6 = load ptr, ptr %4, align 8, !tbaa !50
  %7 = call noundef ptr @_ZNK4expr8get_sortEv(ptr noundef nonnull align 4 dereferenceable(16) %6)
  %8 = call noundef zeroext i1 @_ZNK14bv_recognizers10is_bv_sortEPK4sort(ptr noundef nonnull align 4 dereferenceable(4) %5, ptr noundef %7)
  ret i1 %8
}

; Function Attrs: mustprogress uwtable
define linkonce_odr hidden noundef zeroext i1 @_ZNK11bv_rewriter5is_bvEP4expr(ptr noundef nonnull align 8 dereferenceable(157) %0, ptr noundef %1) #4 comdat align 2 {
  %3 = alloca ptr, align 8
  %4 = alloca ptr, align 8
  store ptr %0, ptr %3, align 8, !tbaa !45
  store ptr %1, ptr %4, align 8, !tbaa !50
  %5 = load ptr, ptr %3, align 8
  %6 = getelementptr inbounds nuw %class.bv_rewriter_core, ptr %5, i32 0, i32 1
  %7 = load ptr, ptr %4, align 8, !tbaa !50
  %8 = call noundef zeroext i1 @_ZNK14bv_recognizers5is_bvEPK4expr(ptr noundef nonnull align 4 dereferenceable(4) %6, ptr noundef %7)
  ret i1 %8
}

; Function Attrs: mustprogress uwtable
define hidden noundef zeroext i1 @_ZNK10macro_util12is_zero_safeEP4expr(ptr noundef nonnull align 8 dereferenceable(320) %0, ptr noundef %1) #4 align 2 {
  %3 = alloca i1, align 1
  %4 = alloca ptr, align 8
  %5 = alloca ptr, align 8
  store ptr %0, ptr %4, align 8, !tbaa !3
  store ptr %1, ptr %5, align 8, !tbaa !50
  %6 = load ptr, ptr %4, align 8
  %7 = getelementptr inbounds nuw %class.macro_util, ptr %6, i32 0, i32 4
  %8 = load ptr, ptr %5, align 8, !tbaa !50
  %9 = call noundef zeroext i1 @_ZNK11bv_rewriter5is_bvEP4expr(ptr noundef nonnull align 8 dereferenceable(157) %7, ptr noundef %8)
  br i1 %9, label %10, label %14

10:                                               ; preds = %2
  %11 = getelementptr inbounds nuw %class.macro_util, ptr %6, i32 0, i32 1
  %12 = load ptr, ptr %5, align 8, !tbaa !50
  %13 = call noundef zeroext i1 @_ZNK14bv_recognizers7is_zeroEPK4expr(ptr noundef nonnull align 4 dereferenceable(4) %11, ptr noundef %12)
  store i1 %13, ptr %3, align 1
  br label %18

14:                                               ; preds = %2
  %15 = getelementptr inbounds nuw %class.macro_util, ptr %6, i32 0, i32 3
  %16 = load ptr, ptr %5, align 8, !tbaa !50
  %17 = call noundef zeroext i1 @_ZNK13poly_rewriterI19arith_rewriter_coreE7is_zeroEP4expr(ptr noundef nonnull align 8 dereferenceable(84) %15, ptr noundef %16)
  store i1 %17, ptr %3, align 1
  br label %18

18:                                               ; preds = %14, %10
  %19 = load i1, ptr %3, align 1
  ret i1 %19
}