; Function Attrs: mustprogress uwtable
define hidden noundef zeroext i1 @_ZNK10macro_util12is_zero_safeEP4expr(ptr noundef nonnull align 8 dereferenceable(320) %0, ptr noundef nonnull %1) local_unnamed_addr #3 align 2 {
  %3 = getelementptr inbounds nuw i8, ptr %0, i64 152
  %4 = tail call noundef ptr @_ZNK4expr8get_sortEv(ptr noundef nonnull align 4 dereferenceable(16) %1)
  %5 = tail call noundef zeroext i1 @_ZNK14bv_recognizers10is_bv_sortEPK4sort(ptr noundef nonnull align 4 dereferenceable(4) %3, ptr noundef %4)
  br i1 %5, label %6, label %9

6:                                                ; preds = %2
  %7 = getelementptr inbounds nuw i8, ptr %0, i64 8
  %8 = tail call noundef zeroext i1 @_ZNK14bv_recognizers7is_zeroEPK4expr(ptr noundef nonnull align 4 dereferenceable(4) %7, ptr noundef nonnull %1)
  br label %12

9:                                                ; preds = %2
  %10 = getelementptr inbounds nuw i8, ptr %0, i64 48
  %11 = tail call noundef zeroext i1 @_ZNK13poly_rewriterI19arith_rewriter_coreE7is_zeroEP4expr(ptr noundef nonnull align 8 dereferenceable(84) %10, ptr noundef nonnull %1)
  br label %12

12:                                               ; preds = %9, %6
  %.0 = phi i1 [ %8, %6 ], [ %11, %9 ]
  ret i1 %.0
}